; Function Attrs: mustprogress nounwind uwtable
define internal noundef nonnull ptr @"_ZNSt17_Function_handlerIFPN4llvm18BlockFrequencyInfoERKNS0_8FunctionEEZNS0_29ModuleSummaryIndexWrapperPass11runOnModuleERNS0_6ModuleEE3$_0E9_M_invokeERKSt9_Any_dataS5_"(ptr nocapture noundef nonnull readonly align 8 dereferenceable(16) %0, ptr noundef nonnull align 8 dereferenceable(136) %1) #0 align 2 {
  %3 = alloca %"class.std::tuple.901", align 8
  %.val = load ptr, ptr %0, align 8
  call void @llvm.lifetime.start.p0(i64 16, ptr nonnull %3)
  %4 = getelementptr inbounds nuw i8, ptr %.val, i64 8
  %5 = load ptr, ptr %4, align 8
  call void @_ZN4llvm16AnalysisResolver12findImplPassEPNS_4PassEPKvRNS_8FunctionE(ptr dead_on_unwind nonnull writable sret(%"class.std::tuple.901") align 8 %3, ptr noundef nonnull align 8 dereferenceable(32) %5, ptr noundef nonnull %.val, ptr noundef nonnull @_ZN4llvm29BlockFrequencyInfoWrapperPass2IDE, ptr noundef nonnull align 8 dereferenceable(136) %1) #21
  %6 = getelementptr inbounds i8, ptr %3, i64 8
  %7 = load ptr, ptr %6, align 8
  %8 = load ptr, ptr %7, align 8
  %9 = getelementptr inbounds i8, ptr %8, i64 96
  %10 = load ptr, ptr %9, align 8
  %11 = call noundef nonnull align 8 dereferenceable(40) ptr %10(ptr noundef nonnull align 8 dereferenceable(28) %7, ptr noundef nonnull @_ZN4llvm29BlockFrequencyInfoWrapperPass2IDE) #21
  call void @llvm.lifetime.end.p0(i64 16, ptr nonnull %3)
  %12 = getelementptr inbounds nuw i8, ptr %11, i64 32
  ret ptr %12
}